; Function Attrs: mustprogress uwtable
define noundef ptr @_ZN5boost6locale4util31create_simple_converter_new_ptrERKNSt7__cxx1112basic_stringIcSt11char_traitsIcESaIcEEE(ptr noundef nonnull align 8 dereferenceable(32) %0) local_unnamed_addr #2 personality ptr @__gxx_personality_v0 {
_ZNSt10unique_ptrIN5boost6locale4util14base_converterESt14default_deleteIS3_EED2Ev.exit:
  %1 = alloca %"class.std::unique_ptr", align 8
  call void @llvm.lifetime.start.p0(i64 8, ptr nonnull %1) #19
  call void @_ZN5boost6locale4util23create_simple_converterERKNSt7__cxx1112basic_stringIcSt11char_traitsIcESaIcEEE(ptr dead_on_unwind nonnull writable sret(%"class.std::unique_ptr") align 8 %1, ptr noundef nonnull align 8 dereferenceable(32) %0)
  %2 = load ptr, ptr %1, align 8, !tbaa !15
  call void @llvm.lifetime.end.p0(i64 8, ptr nonnull %1) #19
  ret ptr %2
}